; Function Attrs: mustprogress uwtable
define hidden noundef zeroext i1 @_ZN15ImageFileReader8id_checkEy(i64 noundef %0) local_unnamed_addr #1 align 2 personality ptr @__gxx_personality_v0 {
  tail call void @_ZN21SimpleCriticalSection5enterEv(ptr noundef nonnull align 8 dereferenceable(40) @_reader_table_lock)
  %2 = inttoptr i64 %0 to ptr
  %3 = load i32, ptr @_ZN15ImageFileReader13_reader_tableE, align 8
  %.not.i = icmp eq i32 %3, 0
  br i1 %.not.i, label %_ZN20ImageFileReaderTable8containsEP15ImageFileReader.exit, label %.lr.ph.i

.lr.ph.i:                                         ; preds = %1
  %4 = load ptr, ptr getelementptr inbounds (i8, ptr @_ZN15ImageFileReader13_reader_tableE, i64 8), align 8
  %5 = zext i32 %3 to i64
  %6 = load ptr, ptr %4, align 8
  %7 = icmp eq ptr %6, %2
  br i1 %7, label %_ZN20ImageFileReaderTable8containsEP15ImageFileReader.exit, label %.lr.ph

.lr.ph:                                           ; preds = %.lr.ph.i, %8
  %indvars.iv.i1 = phi i64 [ %indvars.iv.next.i, %8 ], [ 0, %.lr.ph.i ]
  %indvars.iv.next.i = add nuw nsw i64 %indvars.iv.i1, 1
  %exitcond.not.i = icmp eq i64 %indvars.iv.next.i, %5
  br i1 %exitcond.not.i, label %_ZN20ImageFileReaderTable8containsEP15ImageFileReader.exit.loopexit, label %8, !llvm.loop !13

8:                                                ; preds = %.lr.ph
  %9 = getelementptr inbounds ptr, ptr %4, i64 %indvars.iv.next.i
  %10 = load ptr, ptr %9, align 8
  %11 = icmp eq ptr %10, %2
  br i1 %11, label %_ZN20ImageFileReaderTable8containsEP15ImageFileReader.exit.loopexit, label %.lr.ph, !llvm.loop !13

_ZN20ImageFileReaderTable8containsEP15ImageFileReader.exit.loopexit: ; preds = %.lr.ph, %8
  %12 = icmp ult i64 %indvars.iv.next.i, %5
  br label %_ZN20ImageFileReaderTable8containsEP15ImageFileReader.exit

_ZN20ImageFileReaderTable8containsEP15ImageFileReader.exit: ; preds = %_ZN20ImageFileReaderTable8containsEP15ImageFileReader.exit.loopexit, %.lr.ph.i, %1
  %.lcssa.i = phi i1 [ false, %1 ], [ true, %.lr.ph.i ], [ %12, %_ZN20ImageFileReaderTable8containsEP15ImageFileReader.exit.loopexit ]
  invoke void @_ZN21SimpleCriticalSection4exitEv(ptr noundef nonnull align 8 dereferenceable(40) @_reader_table_lock)
          to label %_ZN25SimpleCriticalSectionLockD2Ev.exit unwind label %13

13:                                               ; preds = %_ZN20ImageFileReaderTable8containsEP15ImageFileReader.exit
  %14 = landingpad { ptr, i32 }
          catch ptr null
  %15 = extractvalue { ptr, i32 } %14, 0
  tail call void @__clang_call_terminate(ptr %15) #27
  unreachable

_ZN25SimpleCriticalSectionLockD2Ev.exit:          ; preds = %_ZN20ImageFileReaderTable8containsEP15ImageFileReader.exit
  ret i1 %.lcssa.i
}